
leddrv.ko:     file format elf32-littlearm

Disassembly of section .text:

00000000 <leddrv_open>:
   0:	e1a0c00d 	mov	ip, sp
   4:	e92dd810 	push	{r4, fp, ip, lr, pc}
   8:	e24cb004 	sub	fp, ip, #4	; 0x4
   c:	e59f4044 	ldr	r4, [pc, #68]	; 58 <leddrv_open+0x58>
  10:	e3a00000 	mov	r0, #0	; 0x0
  14:	e5941000 	ldr	r1, [r4]
  18:	e5913000 	ldr	r3, [r1]		// 在这里出错
  
  
  1c:	e3c33a03 	bic	r3, r3, #12288	; 0x3000
  20:	e5813000 	str	r3, [r1]
  24:	e5912000 	ldr	r2, [r1]
  28:	e3822a01 	orr	r2, r2, #4096	; 0x1000
  2c:	e5812000 	str	r2, [r1]
  30:	e594c004 	ldr	ip, [r4, #4]
  34:	e59c3000 	ldr	r3, [ip]
  38:	e3c33603 	bic	r3, r3, #3145728	; 0x300000
  3c:	e3c3300f 	bic	r3, r3, #15	; 0xf
  40:	e58c3000 	str	r3, [ip]
  44:	e59c2000 	ldr	r2, [ip]
  48:	e3822601 	orr	r2, r2, #1048576	; 0x100000
  4c:	e3822005 	orr	r2, r2, #5	; 0x5
  50:	e58c2000 	str	r2, [ip]
  54:	e89da810 	ldm	sp, {r4, fp, sp, pc}
  58:	00000000 	.word	0x00000000

0000005c <cleanup_module>:
  5c:	e1a0c00d 	mov	ip, sp
  60:	e92dd830 	push	{r4, r5, fp, ip, lr, pc}
  64:	e24cb004 	sub	fp, ip, #4	; 0x4
  68:	e59f403c 	ldr	r4, [pc, #60]	; ac <cleanup_module+0x50>
  6c:	e3a02c01 	mov	r2, #256	; 0x100
  70:	e59f3038 	ldr	r3, [pc, #56]	; b0 <cleanup_module+0x54>
  74:	e5940008 	ldr	r0, [r4, #8]
  78:	e3a01000 	mov	r1, #0	; 0x0
  7c:	ebfffffe 	bl	0 <__unregister_chrdev>
  80:	e5941008 	ldr	r1, [r4, #8]
  84:	e594000c 	ldr	r0, [r4, #12]
  88:	e1a01a01 	lsl	r1, r1, #20
  8c:	ebfffffe 	bl	0 <device_destroy>
  90:	e594000c 	ldr	r0, [r4, #12]
  94:	ebfffffe 	bl	0 <class_destroy>
  98:	e5940000 	ldr	r0, [r4]
  9c:	ebfffffe 	bl	0 <__iounmap>
  a0:	e5940004 	ldr	r0, [r4, #4]
  a4:	ebfffffe 	bl	0 <__iounmap>
  a8:	e89da830 	ldm	sp, {r4, r5, fp, sp, pc}
	...

000000b4 <leddrv_write>:
  b4:	e1a0c00d 	mov	ip, sp
  b8:	e92dd800 	push	{fp, ip, lr, pc}
  bc:	e24cb004 	sub	fp, ip, #4	; 0x4
  c0:	e24dd008 	sub	sp, sp, #8	; 0x8
  c4:	e1a0000d 	mov	r0, sp
  c8:	e3c03d7f 	bic	r3, r0, #8128	; 0x1fc0
  cc:	e3c3303f 	bic	r3, r3, #63	; 0x3f
  d0:	e5930008 	ldr	r0, [r3, #8]
  d4:	e091c002 	adds	ip, r1, r2
  d8:	30dcc000 	sbcscc	ip, ip, r0
  dc:	33a00000 	movcc	r0, #0	; 0x0
  e0:	e3500000 	cmp	r0, #0	; 0x0
  e4:	0a000022 	beq	174 <leddrv_write+0xc0>
  e8:	e3520000 	cmp	r2, #0	; 0x0
  ec:	1a00000f 	bne	130 <leddrv_write+0x7c>
  f0:	e51b3010 	ldr	r3, [fp, #-16]
  f4:	e3530001 	cmp	r3, #1	; 0x1
  f8:	0a000012 	beq	148 <leddrv_write+0x94>
  fc:	e59f007c 	ldr	r0, [pc, #124]	; 180 <leddrv_write+0xcc>
 100:	e5902010 	ldr	r2, [r0, #16]
 104:	e5923000 	ldr	r3, [r2]
 108:	e3c33040 	bic	r3, r3, #64	; 0x40
 10c:	e5823000 	str	r3, [r2]
 110:	e5901014 	ldr	r1, [r0, #20]
 114:	e5913000 	ldr	r3, [r1]
 118:	e3c33b01 	bic	r3, r3, #1024	; 0x400
 11c:	e3c33003 	bic	r3, r3, #3	; 0x3
 120:	e5813000 	str	r3, [r1]
 124:	e3a00000 	mov	r0, #0	; 0x0
 128:	e24bd00c 	sub	sp, fp, #12	; 0xc
 12c:	e89da800 	ldm	sp, {fp, sp, pc}
 130:	e1a01002 	mov	r1, r2
 134:	e24b0010 	sub	r0, fp, #16	; 0x10
 138:	ebfffffe 	bl	0 <__memzero>
 13c:	e51b3010 	ldr	r3, [fp, #-16]
 140:	e3530001 	cmp	r3, #1	; 0x1
 144:	1affffec 	bne	fc <leddrv_write+0x48>
 148:	e59f0030 	ldr	r0, [pc, #48]	; 180 <leddrv_write+0xcc>
 14c:	e5902010 	ldr	r2, [r0, #16]
 150:	e5923000 	ldr	r3, [r2]
 154:	e3833040 	orr	r3, r3, #64	; 0x40
 158:	e5823000 	str	r3, [r2]
 15c:	e5901014 	ldr	r1, [r0, #20]
 160:	e5913000 	ldr	r3, [r1]
 164:	e3833b01 	orr	r3, r3, #1024	; 0x400
 168:	e3833003 	orr	r3, r3, #3	; 0x3
 16c:	e5813000 	str	r3, [r1]
 170:	eaffffeb 	b	124 <leddrv_write+0x70>
 174:	e24b0010 	sub	r0, fp, #16	; 0x10
 178:	ebfffffe 	bl	0 <__copy_from_user>
 17c:	eaffffdb 	b	f0 <leddrv_write+0x3c>
 180:	00000000 	.word	0x00000000

00000184 <init_module>:
 184:	e1a0c00d 	mov	ip, sp
 188:	e92dd810 	push	{r4, fp, ip, lr, pc}
 18c:	e24cb004 	sub	fp, ip, #4	; 0x4
 190:	e24dd00c 	sub	sp, sp, #12	; 0xc
 194:	e59fc090 	ldr	ip, [pc, #144]	; 22c <init_module+0xa8>
 198:	e3a00000 	mov	r0, #0	; 0x0
 19c:	e1a01000 	mov	r1, r0
 1a0:	e3a02c01 	mov	r2, #256	; 0x100
 1a4:	e59f3084 	ldr	r3, [pc, #132]	; 230 <init_module+0xac>
 1a8:	e58dc000 	str	ip, [sp]
 1ac:	ebfffffe 	bl	0 <__register_chrdev>
 1b0:	e59f407c 	ldr	r4, [pc, #124]	; 234 <init_module+0xb0>
 1b4:	e59f1074 	ldr	r1, [pc, #116]	; 230 <init_module+0xac>
 1b8:	e5840008 	str	r0, [r4, #8]
 1bc:	e2842018 	add	r2, r4, #24	; 0x18
 1c0:	e59f0070 	ldr	r0, [pc, #112]	; 238 <init_module+0xb4>
 1c4:	ebfffffe 	bl	0 <__class_create>
 1c8:	e3700a01 	cmn	r0, #4096	; 0x1000
 1cc:	e584000c 	str	r0, [r4, #12]
 1d0:	81a00000 	movhi	r0, r0
 1d4:	8a000012 	bhi	224 <init_module+0xa0>
 1d8:	e5942008 	ldr	r2, [r4, #8]
 1dc:	e3a01000 	mov	r1, #0	; 0x0
 1e0:	e59fc054 	ldr	ip, [pc, #84]	; 23c <init_module+0xb8>
 1e4:	e1a03001 	mov	r3, r1
 1e8:	e1a02a02 	lsl	r2, r2, #20
 1ec:	e58dc000 	str	ip, [sp]
 1f0:	ebfffffe 	bl	0 <device_create>
 1f4:	e59f3044 	ldr	r3, [pc, #68]	; 240 <init_module+0xbc>
 1f8:	e59fc044 	ldr	ip, [pc, #68]	; 244 <init_module+0xc0>
 1fc:	e59f0044 	ldr	r0, [pc, #68]	; 248 <init_module+0xc4>
 200:	e3a0100c 	mov	r1, #12	; 0xc
 204:	e3a02000 	mov	r2, #0	; 0x0
 208:	e5843000 	str	r3, [r4]
 20c:	e584c010 	str	ip, [r4, #16]
 210:	ebfffffe 	bl	0 <__arm_ioremap>
 214:	e2803004 	add	r3, r0, #4	; 0x4
 218:	e5840004 	str	r0, [r4, #4]
 21c:	e5843014 	str	r3, [r4, #20]
 220:	e3a00000 	mov	r0, #0	; 0x0
 224:	e24bd010 	sub	sp, fp, #16	; 0x10
 228:	e89da810 	ldm	sp, {r4, fp, sp, pc}
	...
 23c:	00000008 	.word	0x00000008
 240:	56000050 	.word	0x56000050
 244:	56000054 	.word	0x56000054
 248:	56000060 	.word	0x56000060
Disassembly of section .modinfo:

00000000 <__mod_license99>:
   0:	6563696c 	strbvs	r6, [r3, #-2412]!
   4:	3d65736e 	stclcc	3, cr7, [r5, #-440]!
   8:	004c5047 	subeq	r5, ip, r7, asr #32

0000000c <__module_depends>:
   c:	65706564 	.word	0x65706564
  10:	3d73646e 	.word	0x3d73646e
	...

00000015 <__mod_vermagic5>:
  15:	76          	.byte	0x76
  16:	7265      	.short	0x7265
  18:	6967616d 	.word	0x6967616d
  1c:	2e323d63 	.word	0x2e323d63
  20:	38332e36 	.word	0x38332e36
  24:	6168432d 	.word	0x6168432d
  28:	73656c72 	.word	0x73656c72
  2c:	6d20592e 	.word	0x6d20592e
  30:	755f646f 	.word	0x755f646f
  34:	616f6c6e 	.word	0x616f6c6e
  38:	52412064 	.word	0x52412064
  3c:	2034764d 	.word	0x2034764d
  40:	00000000 	.word	0x00000000