
led_relocate.elf:     file format elf32-littlearm

Disassembly of section .text:

00001000 <_start>:
    1000:	e3a00207 	mov	r0, #1879048192	; 0x70000000
    1004:	e3800013 	orr	r0, r0, #19	; 0x13
    1008:	ee0f0f92 	mcr	15, 0, r0, cr15, cr2, {4}
    100c:	e59f004c 	ldr	r0, [pc, #76]	; 1060 <_infinite_loop+0x4>
    1010:	e3a01000 	mov	r1, #0	; 0x0
    1014:	e5801000 	str	r1, [r0]
    1018:	e3a0da02 	mov	sp, #8192	; 0x2000

0000101c <relocate>:
    101c:	e24f0024 	sub	r0, pc, #36	; 0x24
    1020:	e59f103c 	ldr	r1, [pc, #60]	; 1064 <_infinite_loop+0x8>
    1024:	e59f203c 	ldr	r2, [pc, #60]	; 1068 <_infinite_loop+0xc>
    1028:	e1500001 	cmp	r0, r1
    102c:	0a000003 	beq	1040 <clear_bss>

00001030 <copy_loop>:
    1030:	e4903004 	ldr	r3, [r0], #4
    1034:	e4813004 	str	r3, [r1], #4
    1038:	e1510002 	cmp	r1, r2
    103c:	1afffffb 	bne	1030 <copy_loop>

00001040 <clear_bss>:
    1040:	e59f0020 	ldr	r0, [pc, #32]	; 1068 <_infinite_loop+0xc>
    1044:	e59f1020 	ldr	r1, [pc, #32]	; 106c <_infinite_loop+0x10>
    1048:	e3a02000 	mov	r2, #0	; 0x0

0000104c <clbss_l>:
    104c:	e4802004 	str	r2, [r0], #4
    1050:	e1500001 	cmp	r0, r1
    1054:	dafffffc 	ble	104c <clbss_l>
    1058:	e59ff010 	ldr	pc, [pc, #16]	; 1070 <_infinite_loop+0x14>

0000105c <_infinite_loop>:
    105c:	eafffffe 	b	105c <_infinite_loop>
    1060:	7e004000 	.word	0x7e004000
    1064:	00001000 	.word	0x00001000
    1068:	00001170 	.word	0x00001170
    106c:	00001170 	.word	0x00001170
    1070:	00001110 	.word	0x00001110
    1074:	00001741 	.word	0x00001741
    1078:	61656100 	.word	0x61656100
    107c:	01006962 	.word	0x01006962
    1080:	0000000d 	.word	0x0000000d
    1084:	00543405 	.word	0x00543405
    1088:	01080206 	.word	0x01080206

0000108c <delay>:
    108c:	e52db004 	push	{fp}		; (str fp, [sp, #-4]!)
    1090:	e28db000 	add	fp, sp, #0	; 0x0
    1094:	e24dd00c 	sub	sp, sp, #12	; 0xc
    1098:	e3a03000 	mov	r3, #0	; 0x0
    109c:	e50b3008 	str	r3, [fp, #-8]
    10a0:	ea000002 	b	10b0 <delay+0x24>
    10a4:	e51b3008 	ldr	r3, [fp, #-8]
    10a8:	e2833001 	add	r3, r3, #1	; 0x1
    10ac:	e50b3008 	str	r3, [fp, #-8]
    10b0:	e51b2008 	ldr	r2, [fp, #-8]
    10b4:	e3a03cc3 	mov	r3, #49920	; 0xc300
    10b8:	e283304f 	add	r3, r3, #79	; 0x4f
    10bc:	e1520003 	cmp	r2, r3
    10c0:	9afffff7 	bls	10a4 <delay+0x18>
    10c4:	e28bd000 	add	sp, fp, #0	; 0x0
    10c8:	e8bd0800 	pop	{fp}
    10cc:	e12fff1e 	bx	lr

000010d0 <led_init>:
    10d0:	e52db004 	push	{fp}		; (str fp, [sp, #-4]!)
    10d4:	e28db000 	add	fp, sp, #0	; 0x0
    10d8:	e3a0247f 	mov	r2, #2130706432	; 0x7f000000
    10dc:	e2822b22 	add	r2, r2, #34816	; 0x8800
    10e0:	e2822020 	add	r2, r2, #32	; 0x20
    10e4:	e3a03c11 	mov	r3, #4352	; 0x1100
    10e8:	e2833011 	add	r3, r3, #17	; 0x11
    10ec:	e5823000 	str	r3, [r2]
    10f0:	e3a0347f 	mov	r3, #2130706432	; 0x7f000000
    10f4:	e2833b22 	add	r3, r3, #34816	; 0x8800
    10f8:	e2833024 	add	r3, r3, #36	; 0x24
    10fc:	e3a0200f 	mov	r2, #15	; 0xf
    1100:	e5832000 	str	r2, [r3]
    1104:	e28bd000 	add	sp, fp, #0	; 0x0
    1108:	e8bd0800 	pop	{fp}
    110c:	e12fff1e 	bx	lr

00001110 <myled>:
    1110:	e92d4800 	push	{fp, lr}
    1114:	e28db004 	add	fp, sp, #4	; 0x4
    1118:	e24dd008 	sub	sp, sp, #8	; 0x8
    111c:	ebffffeb 	bl	10d0 <led_init>
    1120:	e3a03000 	mov	r3, #0	; 0x0
    1124:	e50b3008 	str	r3, [fp, #-8]
    1128:	ea00000c 	b	1160 <myled+0x50>
    112c:	e3a0247f 	mov	r2, #2130706432	; 0x7f000000
    1130:	e2822b22 	add	r2, r2, #34816	; 0x8800
    1134:	e2822024 	add	r2, r2, #36	; 0x24
    1138:	e51b3008 	ldr	r3, [fp, #-8]
    113c:	e1a01003 	mov	r1, r3
    1140:	e3a03001 	mov	r3, #1	; 0x1
    1144:	e1a03113 	lsl	r3, r3, r1
    1148:	e1e03003 	mvn	r3, r3
    114c:	e5823000 	str	r3, [r2]
    1150:	ebffffcd 	bl	108c <delay>
    1154:	e51b3008 	ldr	r3, [fp, #-8]
    1158:	e2833001 	add	r3, r3, #1	; 0x1
    115c:	e50b3008 	str	r3, [fp, #-8]
    1160:	e51b3008 	ldr	r3, [fp, #-8]
    1164:	e3530003 	cmp	r3, #3	; 0x3
    1168:	9affffef 	bls	112c <myled+0x1c>
    116c:	eaffffeb 	b	1120 <myled+0x10>
Disassembly of section .comment:

00000000 <.comment>:
   0:	43434700 	movtmi	r4, #14080	; 0x3700
   4:	5328203a 	teqpl	r8, #58	; 0x3a
   8:	6372756f 	cmnvs	r2, #465567744	; 0x1bc00000
   c:	20797265 	rsbscs	r7, r9, r5, ror #4
  10:	202b2b47 	eorcs	r2, fp, r7, asr #22
  14:	6574694c 	ldrbvs	r6, [r4, #-2380]!
  18:	30303220 	eorscc	r3, r0, r0, lsr #4
  1c:	2d337138 	ldfcss	f7, [r3, #-224]!
  20:	20293237 	eorcs	r3, r9, r7, lsr r2
  24:	2e332e34 	mrccs	14, 1, r2, cr3, cr4, {1}
  28:	Address 0x00000028 is out of bounds.

Disassembly of section .ARM.attributes:

00000000 <.ARM.attributes>:
   0:	00002541 	andeq	r2, r0, r1, asr #10
   4:	61656100 	cmnvs	r5, r0, lsl #2
   8:	01006962 	tsteq	r0, r2, ror #18
   c:	0000001b 	andeq	r0, r0, fp, lsl r0
  10:	00543405 	subseq	r3, r4, r5, lsl #8
  14:	01080206 	tsteq	r8, r6, lsl #4
  18:	01140412 	tsteq	r4, r2, lsl r4
  1c:	03170115 	tsteq	r7, #1073741829	; 0x40000005
  20:	01190118 	tsteq	r9, r8, lsl r1
  24:	Address 0x00000024 is out of bounds.

